target datalayout = "e-m:e-p270:32:32-p271:32:32-p272:64:64-i64:64-i128:128-f80:128-n8:16:32:64-S128"
target triple = "x86_64-pc-linux-gnu"

; Function Attrs: nounwind uwtable
define ptr @BIO_f_ssl() #0 {
  ret ptr @methods_sslp
}

; Function Attrs: nounwind uwtable
define ptr @BIO_new_ssl(ptr noundef %0, i32 noundef %1) #0 {
  %3 = alloca ptr, align 8
  %4 = alloca ptr, align 8
  %5 = alloca i32, align 4
  %6 = alloca ptr, align 8
  %7 = alloca ptr, align 8
  %8 = alloca i32, align 4
  store ptr %0, ptr %4, align 8, !tbaa !3
  store i32 %1, ptr %5, align 4, !tbaa !47
  call void @llvm.lifetime.start.p0(i64 8, ptr %6) #5
  call void @llvm.lifetime.start.p0(i64 8, ptr %7) #5
  %9 = call ptr @BIO_f_ssl()
  %10 = call ptr @BIO_new(ptr noundef %9)
  store ptr %10, ptr %6, align 8, !tbaa !8
  %11 = icmp eq ptr %10, null
  br i1 %11, label %12, label %13

12:                                               ; preds = %2
  store ptr null, ptr %3, align 8
  store i32 1, ptr %8, align 4
  br label %32

13:                                               ; preds = %2
  %14 = load ptr, ptr %4, align 8, !tbaa !3
  %15 = call ptr @SSL_new(ptr noundef %14)
  store ptr %15, ptr %7, align 8, !tbaa !48
  %16 = icmp eq ptr %15, null
  br i1 %16, label %17, label %20

17:                                               ; preds = %13
  %18 = load ptr, ptr %6, align 8, !tbaa !8
  %19 = call i32 @BIO_free(ptr noundef %18)
  store ptr null, ptr %3, align 8
  store i32 1, ptr %8, align 4
  br label %32

20:                                               ; preds = %13
  %21 = load i32, ptr %5, align 4, !tbaa !47
  %22 = icmp ne i32 %21, 0
  br i1 %22, label %23, label %25

23:                                               ; preds = %20
  %24 = load ptr, ptr %7, align 8, !tbaa !48
  call void @SSL_set_connect_state(ptr noundef %24)
  br label %27

25:                                               ; preds = %20
  %26 = load ptr, ptr %7, align 8, !tbaa !48
  call void @SSL_set_accept_state(ptr noundef %26)
  br label %27

27:                                               ; preds = %25, %23
  %28 = load ptr, ptr %6, align 8, !tbaa !8
  %29 = load ptr, ptr %7, align 8, !tbaa !48
  %30 = call i64 @BIO_ctrl(ptr noundef %28, i32 noundef 109, i64 noundef 1, ptr noundef %29)
  %31 = load ptr, ptr %6, align 8, !tbaa !8
  store ptr %31, ptr %3, align 8
  store i32 1, ptr %8, align 4
  br label %32

32:                                               ; preds = %27, %17, %12
  call void @llvm.lifetime.end.p0(i64 8, ptr %7) #5
  call void @llvm.lifetime.end.p0(i64 8, ptr %6) #5
  %33 = load ptr, ptr %3, align 8
  ret ptr %33
}