; Function Attrs: nounwind uwtable
define ptr @BIO_new_ssl(ptr noundef %0, i32 noundef %1) local_unnamed_addr #1 {
  %3 = tail call ptr @BIO_new(ptr noundef nonnull @methods_sslp) #5
  %4 = icmp eq ptr %3, null
  br i1 %4, label %15, label %5

5:                                                ; preds = %2
  %6 = tail call ptr @SSL_new(ptr noundef %0) #5
  %7 = icmp eq ptr %6, null
  br i1 %7, label %8, label %10

8:                                                ; preds = %5
  %9 = tail call i32 @BIO_free(ptr noundef nonnull %3) #5
  br label %15

10:                                               ; preds = %5
  %.not = icmp eq i32 %1, 0
  br i1 %.not, label %12, label %11

11:                                               ; preds = %10
  tail call void @SSL_set_connect_state(ptr noundef nonnull %6) #5
  br label %13

12:                                               ; preds = %10
  tail call void @SSL_set_accept_state(ptr noundef nonnull %6) #5
  br label %13

13:                                               ; preds = %12, %11
  %14 = tail call i64 @BIO_ctrl(ptr noundef nonnull %3, i32 noundef 109, i64 noundef 1, ptr noundef nonnull %6) #5
  br label %15

15:                                               ; preds = %2, %13, %8
  %.0 = phi ptr [ null, %8 ], [ %3, %13 ], [ null, %2 ]
  ret ptr %.0
}